; Function Attrs: nounwind uwtable
define dso_local range(i64 0, 2) i64 @pg_try_advisory_xact_lock_shared_int8(ptr noundef readonly captures(none) %0) local_unnamed_addr #0 {
  %2 = alloca %struct.LOCKTAG, align 4
  %3 = getelementptr inbounds nuw i8, ptr %0, i64 32
  %4 = load i64, ptr %3, align 8
  call void @llvm.lifetime.start.p0(i64 16, ptr nonnull %2) #4
  %5 = load i32, ptr @MyDatabaseId, align 4
  store i32 %5, ptr %2, align 4
  %6 = lshr i64 %4, 32
  %7 = trunc nuw i64 %6 to i32
  %8 = getelementptr inbounds nuw i8, ptr %2, i64 4
  store i32 %7, ptr %8, align 4
  %9 = trunc i64 %4 to i32
  %10 = getelementptr inbounds nuw i8, ptr %2, i64 8
  store i32 %9, ptr %10, align 4
  %11 = getelementptr inbounds nuw i8, ptr %2, i64 12
  store i16 1, ptr %11, align 4
  %12 = getelementptr inbounds nuw i8, ptr %2, i64 14
  store i8 10, ptr %12, align 2
  %13 = getelementptr inbounds nuw i8, ptr %2, i64 15
  store i8 2, ptr %13, align 1
  %14 = call i32 @LockAcquire(ptr noundef nonnull %2, i32 noundef 5, i1 noundef zeroext false, i1 noundef zeroext true) #4
  %15 = icmp ne i32 %14, 0
  %16 = zext i1 %15 to i64
  call void @llvm.lifetime.end.p0(i64 16, ptr nonnull %2) #4
  ret i64 %16
}